; Function Attrs: mustprogress uwtable
define noundef zeroext i1 @_ZN3g2o16OptimizableGraph9addVertexEPNS0_6VertexEPNS_10HyperGraph4DataE(ptr noundef nonnull align 8 dereferenceable(288) %0, ptr noundef %1, ptr noundef %2) local_unnamed_addr #4 align 2 {
  %4 = getelementptr inbounds nuw i8, ptr %1, i64 8
  %5 = load i32, ptr %4, align 8, !tbaa !133
  %6 = icmp slt i32 %5, 0
  br i1 %6, label %17, label %7

7:                                                ; preds = %3
  %8 = tail call noundef ptr @_ZN3g2o10HyperGraph6vertexEi(ptr noundef nonnull align 8 dereferenceable(288) %0, i32 noundef %5)
  %.not = icmp eq ptr %8, null
  br i1 %.not, label %9, label %17

9:                                                ; preds = %7
  %10 = getelementptr inbounds nuw i8, ptr %1, i64 80
  %11 = load ptr, ptr %10, align 8, !tbaa !81
  %.not14 = icmp eq ptr %11, null
  %.not15 = icmp eq ptr %11, %0
  %or.cond = or i1 %.not14, %.not15
  br i1 %or.cond, label %12, label %17

12:                                               ; preds = %9
  %.not16 = icmp eq ptr %2, null
  br i1 %.not16, label %15, label %13

13:                                               ; preds = %12
  %14 = getelementptr inbounds nuw i8, ptr %1, i64 72
  store ptr %2, ptr %14, align 8, !tbaa !3
  br label %15

15:                                               ; preds = %13, %12
  store ptr %0, ptr %10, align 8, !tbaa !81
  %16 = tail call noundef zeroext i1 @_ZN3g2o10HyperGraph9addVertexEPNS0_6VertexE(ptr noundef nonnull align 8 dereferenceable(112) %0, ptr noundef nonnull %1)
  br label %17

17:                                               ; preds = %15, %7, %9, %3
  %.0 = phi i1 [ false, %3 ], [ %16, %15 ], [ false, %7 ], [ false, %9 ]
  ret i1 %.0
}